; Function Attrs: nounwind uwtable
define internal noundef i32 @xx_clear(ptr noundef %0) #0 {
  %2 = tail call ptr @PyModule_GetState(ptr noundef %0) #5
  %3 = load ptr, ptr %2, align 8, !tbaa !10
  %.not = icmp eq ptr %3, null
  br i1 %.not, label %5, label %4

4:                                                ; preds = %1
  store ptr null, ptr %2, align 8, !tbaa !10
  tail call void @_Py_DecRef(ptr noundef nonnull %3) #5
  br label %5

5:                                                ; preds = %4, %1
  %6 = getelementptr inbounds nuw i8, ptr %2, i64 8
  %7 = load ptr, ptr %6, align 8, !tbaa !10
  %.not12 = icmp eq ptr %7, null
  br i1 %.not12, label %9, label %8

8:                                                ; preds = %5
  store ptr null, ptr %6, align 8, !tbaa !10
  tail call void @_Py_DecRef(ptr noundef nonnull %7) #5
  br label %9

9:                                                ; preds = %8, %5
  ret i32 0
}